target datalayout = "e-m:e-p270:32:32-p271:32:32-p272:64:64-i64:64-i128:128-f80:128-n8:16:32:64-S128"
target triple = "x86_64-pc-linux-gnu"

%"class.gmx::CommandLineCommonOptionsHolder" = type <{ %"class.gmx::Options", %"class.gmx::BinaryInformationSettings", i8, i8, i8, i8, i8, [3 x i8], i32, i8, i8, i8, i8, i32, [4 x i8] }>
%"class.gmx::Options" = type { %"class.gmx::IOptionsContainerWithSections", %"class.std::unique_ptr" }
%"class.gmx::IOptionsContainerWithSections" = type { %"class.gmx::IOptionsContainer" }
%"class.gmx::IOptionsContainer" = type { ptr }
%"class.std::unique_ptr" = type { %"struct.std::__uniq_ptr_data" }
%"struct.std::__uniq_ptr_data" = type { %"class.std::__uniq_ptr_impl" }
%"class.std::__uniq_ptr_impl" = type { %"class.std::tuple" }
%"class.std::tuple" = type { %"struct.std::_Tuple_impl" }
%"struct.std::_Tuple_impl" = type { %"struct.std::_Head_base.1" }
%"struct.std::_Head_base.1" = type { ptr }
%"class.gmx::BinaryInformationSettings" = type { i8, i8, i8, i8, ptr, ptr }

; Function Attrs: mustprogress nounwind uwtable
define linkonce_odr noundef nonnull align 8 dereferenceable(24) ptr @_ZN3gmx25BinaryInformationSettings9copyrightEb(ptr noundef nonnull align 8 dereferenceable(24) %0, i1 noundef zeroext %1) #2 comdat align 2 {
  %3 = alloca ptr, align 8
  %4 = alloca i8, align 1
  store ptr %0, ptr %3, align 8
  %5 = zext i1 %1 to i8
  store i8 %5, ptr %4, align 1
  %6 = load ptr, ptr %3, align 8
  %7 = load i8, ptr %4, align 1
  %8 = trunc i8 %7 to i1
  %9 = getelementptr inbounds %"class.gmx::BinaryInformationSettings", ptr %6, i32 0, i32 1
  %10 = zext i1 %8 to i8
  store i8 %10, ptr %9, align 1
  ret ptr %6
}

; Function Attrs: mustprogress uwtable
define void @_ZN3gmx30CommandLineCommonOptionsHolderC2Ev(ptr noundef nonnull align 8 dereferenceable(60) %0) unnamed_addr #0 align 2 personality ptr @__gxx_personality_v0 {
  %2 = alloca ptr, align 8
  %3 = alloca ptr, align 8
  %4 = alloca i32, align 4
  store ptr %0, ptr %2, align 8
  %5 = load ptr, ptr %2, align 8
  %6 = getelementptr inbounds %"class.gmx::CommandLineCommonOptionsHolder", ptr %5, i32 0, i32 0
  call void @_ZN3gmx7OptionsC1Ev(ptr noundef nonnull align 8 dereferenceable(16) %6)
  %7 = getelementptr inbounds %"class.gmx::CommandLineCommonOptionsHolder", ptr %5, i32 0, i32 1
  invoke void @_ZN3gmx25BinaryInformationSettingsC1Ev(ptr noundef nonnull align 8 dereferenceable(24) %7)
          to label %8 unwind label %22

8:                                                ; preds = %1
  %9 = getelementptr inbounds %"class.gmx::CommandLineCommonOptionsHolder", ptr %5, i32 0, i32 2
  store i8 0, ptr %9, align 8
  %10 = getelementptr inbounds %"class.gmx::CommandLineCommonOptionsHolder", ptr %5, i32 0, i32 3
  store i8 0, ptr %10, align 1
  %11 = getelementptr inbounds %"class.gmx::CommandLineCommonOptionsHolder", ptr %5, i32 0, i32 4
  store i8 0, ptr %11, align 2
  %12 = getelementptr inbounds %"class.gmx::CommandLineCommonOptionsHolder", ptr %5, i32 0, i32 5
  store i8 0, ptr %12, align 1
  %13 = getelementptr inbounds %"class.gmx::CommandLineCommonOptionsHolder", ptr %5, i32 0, i32 6
  store i8 0, ptr %13, align 4
  %14 = getelementptr inbounds %"class.gmx::CommandLineCommonOptionsHolder", ptr %5, i32 0, i32 8
  store i32 19, ptr %14, align 8
  %15 = getelementptr inbounds %"class.gmx::CommandLineCommonOptionsHolder", ptr %5, i32 0, i32 9
  store i8 0, ptr %15, align 4
  %16 = getelementptr inbounds %"class.gmx::CommandLineCommonOptionsHolder", ptr %5, i32 0, i32 10
  store i8 1, ptr %16, align 1
  %17 = getelementptr inbounds %"class.gmx::CommandLineCommonOptionsHolder", ptr %5, i32 0, i32 11
  store i8 0, ptr %17, align 2
  %18 = getelementptr inbounds %"class.gmx::CommandLineCommonOptionsHolder", ptr %5, i32 0, i32 13
  store i32 0, ptr %18, align 8
  %19 = getelementptr inbounds %"class.gmx::CommandLineCommonOptionsHolder", ptr %5, i32 0, i32 1
  %20 = invoke noundef nonnull align 8 dereferenceable(24) ptr @_ZN3gmx25BinaryInformationSettings9copyrightEb(ptr noundef nonnull align 8 dereferenceable(24) %19, i1 noundef zeroext false)
          to label %21 unwind label %22

21:                                               ; preds = %8
  ret void

22:                                               ; preds = %8, %1
  %23 = landingpad { ptr, i32 }
          cleanup
  %24 = extractvalue { ptr, i32 } %23, 0
  store ptr %24, ptr %3, align 8
  %25 = extractvalue { ptr, i32 } %23, 1
  store i32 %25, ptr %4, align 4
  call void @_ZN3gmx7OptionsD1Ev(ptr noundef nonnull align 8 dereferenceable(16) %6) #13
  br label %26

26:                                               ; preds = %22
  %27 = load ptr, ptr %3, align 8
  %28 = load i32, ptr %4, align 4
  %29 = insertvalue { ptr, i32 } poison, ptr %27, 0
  %30 = insertvalue { ptr, i32 } %29, i32 %28, 1
  resume { ptr, i32 } %30
}