; Function Attrs: mustprogress uwtable
define void @_ZN3gmx30CommandLineCommonOptionsHolderC2Ev(ptr noundef nonnull align 8 dereferenceable(60) %0) unnamed_addr #0 align 2 personality ptr @__gxx_personality_v0 {
  tail call void @_ZN3gmx7OptionsC1Ev(ptr noundef nonnull align 8 dereferenceable(16) %0)
  %2 = getelementptr inbounds i8, ptr %0, i64 16
  invoke void @_ZN3gmx25BinaryInformationSettingsC1Ev(ptr noundef nonnull align 8 dereferenceable(24) %2)
          to label %3 unwind label %11

3:                                                ; preds = %1
  %4 = getelementptr inbounds i8, ptr %0, i64 40
  %5 = getelementptr inbounds i8, ptr %0, i64 48
  tail call void @llvm.memset.p0.i64(ptr noundef nonnull align 8 dereferenceable(5) %4, i8 0, i64 5, i1 false)
  store i32 19, ptr %5, align 8
  %6 = getelementptr inbounds i8, ptr %0, i64 52
  store i8 0, ptr %6, align 4
  %7 = getelementptr inbounds i8, ptr %0, i64 53
  store i8 1, ptr %7, align 1
  %8 = getelementptr inbounds i8, ptr %0, i64 54
  store i8 0, ptr %8, align 2
  %9 = getelementptr inbounds i8, ptr %0, i64 56
  store i32 0, ptr %9, align 8
  %10 = getelementptr inbounds i8, ptr %0, i64 17
  store i8 0, ptr %10, align 1
  ret void

11:                                               ; preds = %1
  %12 = landingpad { ptr, i32 }
          cleanup
  tail call void @_ZN3gmx7OptionsD1Ev(ptr noundef nonnull align 8 dereferenceable(16) %0) #21
  resume { ptr, i32 } %12
}